#include <math.h>
#include <stdio.h>
#include <stdlib.h>
#include <string.h>


void main()
{
	int l,n,m,t,i,j;
	scanf("%d",&t);
	for (l=1;l<=t;l++)
	{
		scanf("%d%d",&n,&m);
		int sum=0,a;
		for (i=1;i<=n;i++)
			for (j=1;j<=m;j++)
			{
				scanf("%d",&a);
				if (i==1||j==1||i==n||j==m)
					sum+=a;
			}
		printf("%d\n",sum);
	}
}