; ModuleID = '6/1997.c'
source_filename = "6/1997.c"
target datalayout = "e-m:e-p270:32:32-p271:32:32-p272:64:64-i64:64-f80:128-n8:16:32:64-S128"
target triple = "x86_64-pc-linux-gnu"

@.str = private unnamed_addr constant [3 x i8] c"%d\00", align 1
@.str.1 = private unnamed_addr constant [5 x i8] c"%d%d\00", align 1
@.str.2 = private unnamed_addr constant [4 x i8] c"%d\0A\00", align 1

; Function Attrs: noinline nounwind uwtable
define dso_local void @main() #0 {
  %1 = alloca i32, align 4
  %2 = alloca i32, align 4
  %3 = alloca i32, align 4
  %4 = alloca i32, align 4
  %5 = alloca i32, align 4
  %6 = alloca i32, align 4
  %7 = alloca i32, align 4
  %8 = alloca i32, align 4
  %9 = call i32 (i8*, ...) @__isoc99_scanf(i8* getelementptr inbounds ([3 x i8], [3 x i8]* @.str, i64 0, i64 0), i32* %4)
  store i32 1, i32* %1, align 4
  br label %10

10:                                               ; preds = %55, %0
  %11 = load i32, i32* %1, align 4
  %12 = load i32, i32* %4, align 4
  %13 = icmp sle i32 %11, %12
  br i1 %13, label %14, label %58

14:                                               ; preds = %10
  %15 = call i32 (i8*, ...) @__isoc99_scanf(i8* getelementptr inbounds ([5 x i8], [5 x i8]* @.str.1, i64 0, i64 0), i32* %2, i32* %3)
  store i32 0, i32* %7, align 4
  store i32 1, i32* %5, align 4
  br label %16

16:                                               ; preds = %49, %14
  %17 = load i32, i32* %5, align 4
  %18 = load i32, i32* %2, align 4
  %19 = icmp sle i32 %17, %18
  br i1 %19, label %20, label %52

20:                                               ; preds = %16
  store i32 1, i32* %6, align 4
  br label %21

21:                                               ; preds = %45, %20
  %22 = load i32, i32* %6, align 4
  %23 = load i32, i32* %3, align 4
  %24 = icmp sle i32 %22, %23
  br i1 %24, label %25, label %48

25:                                               ; preds = %21
  %26 = call i32 (i8*, ...) @__isoc99_scanf(i8* getelementptr inbounds ([3 x i8], [3 x i8]* @.str, i64 0, i64 0), i32* %8)
  %27 = load i32, i32* %5, align 4
  %28 = icmp eq i32 %27, 1
  br i1 %28, label %40, label %29

29:                                               ; preds = %25
  %30 = load i32, i32* %6, align 4
  %31 = icmp eq i32 %30, 1
  br i1 %31, label %40, label %32

32:                                               ; preds = %29
  %33 = load i32, i32* %5, align 4
  %34 = load i32, i32* %2, align 4
  %35 = icmp eq i32 %33, %34
  br i1 %35, label %40, label %36

36:                                               ; preds = %32
  %37 = load i32, i32* %6, align 4
  %38 = load i32, i32* %3, align 4
  %39 = icmp eq i32 %37, %38
  br i1 %39, label %40, label %44

40:                                               ; preds = %36, %32, %29, %25
  %41 = load i32, i32* %8, align 4
  %42 = load i32, i32* %7, align 4
  %43 = add nsw i32 %42, %41
  store i32 %43, i32* %7, align 4
  br label %44

44:                                               ; preds = %40, %36
  br label %45

45:                                               ; preds = %44
  %46 = load i32, i32* %6, align 4
  %47 = add nsw i32 %46, 1
  store i32 %47, i32* %6, align 4
  br label %21

48:                                               ; preds = %21
  br label %49

49:                                               ; preds = %48
  %50 = load i32, i32* %5, align 4
  %51 = add nsw i32 %50, 1
  store i32 %51, i32* %5, align 4
  br label %16

52:                                               ; preds = %16
  %53 = load i32, i32* %7, align 4
  %54 = call i32 (i8*, ...) @printf(i8* getelementptr inbounds ([4 x i8], [4 x i8]* @.str.2, i64 0, i64 0), i32 %53)
  br label %55

55:                                               ; preds = %52
  %56 = load i32, i32* %1, align 4
  %57 = add nsw i32 %56, 1
  store i32 %57, i32* %1, align 4
  br label %10

58:                                               ; preds = %10
  ret void
}

declare dso_local i32 @__isoc99_scanf(i8*, ...) #1

declare dso_local i32 @printf(i8*, ...) #1


!llvm.module.flags = !{!0}
!llvm.ident = !{!1}

!0 = !{i32 1, !"wchar_size", i32 4}
!1 = !{!"clang version 10.0.0-4ubuntu1 "}
